; Function Attrs: nounwind uwtable
define ptr @Abc_NtkRestrash(ptr noundef %0, i32 noundef %1) local_unnamed_addr #0 {
  %3 = tail call i32 @Abc_NtkGetChoiceNum(ptr noundef %0) #11
  %.not = icmp eq i32 %3, 0
  br i1 %.not, label %5, label %4

4:                                                ; preds = %2
  %puts = tail call i32 @puts(ptr nonnull dereferenceable(1) @str.4)
  br label %5

5:                                                ; preds = %4, %2
  %6 = tail call ptr @Abc_NtkStartFrom(ptr noundef %0, i32 noundef 3, i32 noundef 3) #11
  %7 = tail call ptr @Abc_NtkDfs(ptr noundef %0, i32 noundef 0) #11
  %8 = getelementptr i8, ptr %7, i64 4
  %.val36 = load i32, ptr %8, align 4
  %9 = icmp sgt i32 %.val36, 0
  br i1 %9, label %.lr.ph, label %.critedge

.lr.ph:                                           ; preds = %5
  %10 = getelementptr i8, ptr %7, i64 8
  %11 = getelementptr inbounds nuw i8, ptr %6, i64 256
  br label %12

12:                                               ; preds = %.lr.ph, %12
  %indvars.iv = phi i64 [ 0, %.lr.ph ], [ %indvars.iv.next, %12 ]
  %.val29 = load ptr, ptr %10, align 8
  %13 = getelementptr inbounds nuw ptr, ptr %.val29, i64 %indvars.iv
  %14 = load ptr, ptr %13, align 8
  %15 = load ptr, ptr %11, align 8
  %.val.i = load ptr, ptr %14, align 8
  %16 = getelementptr i8, ptr %14, i64 32
  %.val2.i = load ptr, ptr %16, align 8
  %17 = getelementptr i8, ptr %.val.i, i64 32
  %.val.val.i = load ptr, ptr %17, align 8
  %.val2.val.i = load i32, ptr %.val2.i, align 4
  %18 = getelementptr i8, ptr %.val.val.i, i64 8
  %.val.val.val.i = load ptr, ptr %18, align 8
  %19 = sext i32 %.val2.val.i to i64
  %20 = getelementptr inbounds ptr, ptr %.val.val.val.i, i64 %19
  %21 = load ptr, ptr %20, align 8
  %22 = getelementptr inbounds nuw i8, ptr %21, i64 64
  %23 = load ptr, ptr %22, align 8
  %24 = getelementptr i8, ptr %14, i64 20
  %.val3.i = load i32, ptr %24, align 4
  %25 = lshr i32 %.val3.i, 10
  %26 = and i32 %25, 1
  %27 = ptrtoint ptr %23 to i64
  %28 = zext nneg i32 %26 to i64
  %29 = xor i64 %28, %27
  %30 = inttoptr i64 %29 to ptr
  %31 = getelementptr i8, ptr %.val2.i, i64 4
  %.val2.val.i33 = load i32, ptr %31, align 4
  %32 = sext i32 %.val2.val.i33 to i64
  %33 = getelementptr inbounds ptr, ptr %.val.val.val.i, i64 %32
  %34 = load ptr, ptr %33, align 8
  %35 = getelementptr inbounds nuw i8, ptr %34, i64 64
  %36 = load ptr, ptr %35, align 8
  %37 = lshr i32 %.val3.i, 11
  %38 = and i32 %37, 1
  %39 = ptrtoint ptr %36 to i64
  %40 = zext nneg i32 %38 to i64
  %41 = xor i64 %39, %40
  %42 = inttoptr i64 %41 to ptr
  %43 = tail call ptr @Abc_AigAnd(ptr noundef %15, ptr noundef %30, ptr noundef %42) #11
  %44 = getelementptr inbounds nuw i8, ptr %14, i64 64
  store ptr %43, ptr %44, align 8
  %indvars.iv.next = add nuw nsw i64 %indvars.iv, 1
  %.val = load i32, ptr %8, align 4
  %45 = sext i32 %.val to i64
  %46 = icmp slt i64 %indvars.iv.next, %45
  br i1 %46, label %12, label %.critedge, !llvm.loop !4

.critedge:                                        ; preds = %12, %5
  %47 = getelementptr inbounds nuw i8, ptr %7, i64 8
  %48 = load ptr, ptr %47, align 8
  %.not.i = icmp eq ptr %48, null
  br i1 %.not.i, label %Vec_PtrFree.exit, label %49

49:                                               ; preds = %.critedge
  tail call void @free(ptr noundef nonnull %48) #11
  br label %Vec_PtrFree.exit

Vec_PtrFree.exit:                                 ; preds = %.critedge, %49
  tail call void @free(ptr noundef nonnull %7) #11
  tail call void @Abc_NtkFinalize(ptr noundef %0, ptr noundef %6) #11
  %.not25 = icmp eq i32 %1, 0
  br i1 %.not25, label %54, label %50

50:                                               ; preds = %Vec_PtrFree.exit
  %51 = getelementptr inbounds nuw i8, ptr %6, i64 256
  %52 = load ptr, ptr %51, align 8
  %53 = tail call i32 @Abc_AigCleanup(ptr noundef %52) #11
  br label %54

54:                                               ; preds = %50, %Vec_PtrFree.exit
  %55 = getelementptr inbounds nuw i8, ptr %0, i64 328
  %56 = load ptr, ptr %55, align 8
  %.not26 = icmp eq ptr %56, null
  br i1 %.not26, label %60, label %57

57:                                               ; preds = %54
  %58 = tail call ptr @Abc_NtkDup(ptr noundef nonnull %56) #11
  %59 = getelementptr inbounds nuw i8, ptr %6, i64 328
  store ptr %58, ptr %59, align 8
  br label %60

60:                                               ; preds = %57, %54
  %61 = tail call i32 @Abc_NtkCheck(ptr noundef %6) #11
  %.not27 = icmp eq i32 %61, 0
  br i1 %.not27, label %62, label %63

62:                                               ; preds = %60
  %puts28 = tail call i32 @puts(ptr nonnull dereferenceable(1) @str.13)
  tail call void @Abc_NtkDelete(ptr noundef %6) #11
  br label %63

63:                                               ; preds = %60, %62
  %.0 = phi ptr [ null, %62 ], [ %6, %60 ]
  ret ptr %.0
}